(dp1
S'comment'
p2
S'TEXT NOT NULL'
p3
sS'email'
p4
S'CHAR(512) NOT NULL'
p5
sS'id'
p6
S'INTEGER PRIMARY KEY AUTOINCREMENT'
p7
sS'timestamp'
p8
S'TIMESTAMP NOT NULL'
p9
sS'name'
p10
S'CHAR(512) NOT NULL'
p11
s.