(dp1
S'prereq'
p2
S'INTEGER REFERENCES subject(id) ON DELETE CASCADE'
p3
sS'year'
p4
S'INTEGER REFERENCES syllabus(id) ON DELETE CASCADE'
p5
sS'id'
p6
S'INTEGER PRIMARY KEY AUTOINCREMENT'
p7
sS'subject'
p8
S'INTEGER REFERENCES subject(id) ON DELETE CASCADE'
p9
s.